target datalayout = "e-m:e-p270:32:32-p271:32:32-p272:64:64-i64:64-i128:128-f80:128-n8:16:32:64-S128"
target triple = "x86_64-pc-linux-gnu"

%struct.strvec = type { ptr, i64, i64 }
%struct.option = type { i32, i32, ptr, ptr, ptr, ptr, i32, ptr, i64, ptr, i64, ptr }
%struct.child_process = type { %struct.strvec, %struct.strvec, i32, i32, i64, ptr, ptr, i32, i32, i32, ptr, i16, ptr }

@the_repository = external global ptr, align 8
@ref_stash = internal constant [11 x i8] c"refs/stash\00", align 1
@git_stash_list_usage = internal constant [2 x ptr] [ptr @.str.78, ptr null], align 16
@.str.73 = private unnamed_addr constant [4 x i8] c"log\00", align 1
@.str.74 = private unnamed_addr constant [18 x i8] c"--format=%gd: %gs\00", align 1
@.str.75 = private unnamed_addr constant [3 x i8] c"-g\00", align 1
@.str.76 = private unnamed_addr constant [15 x i8] c"--first-parent\00", align 1
@.str.77 = private unnamed_addr constant [3 x i8] c"--\00", align 1

; Function Attrs: nounwind uwtable
define internal i32 @list_stash(i32 noundef %0, ptr noundef %1, ptr noundef %2, ptr noundef %3) #0 {
  %5 = alloca i32, align 4
  %6 = alloca i32, align 4
  %7 = alloca ptr, align 8
  %8 = alloca ptr, align 8
  %9 = alloca ptr, align 8
  %10 = alloca %struct.child_process, align 8
  %11 = alloca [1 x %struct.option], align 16
  %12 = alloca i32, align 4
  store i32 %0, ptr %6, align 4, !tbaa !4
  store ptr %1, ptr %7, align 8, !tbaa !8
  store ptr %2, ptr %8, align 8, !tbaa !11
  store ptr %3, ptr %9, align 8, !tbaa !13
  call void @llvm.lifetime.start.p0(i64 120, ptr %10) #9
  call void @llvm.memcpy.p0.p0.i64(ptr align 8 %10, ptr align 8 @__const.list_stash.cp, i64 120, i1 false)
  call void @llvm.lifetime.start.p0(i64 88, ptr %11) #9
  call void @llvm.memset.p0.i64(ptr align 16 %11, i8 0, i64 88, i1 false)
  %13 = load i32, ptr %6, align 4, !tbaa !4
  %14 = load ptr, ptr %7, align 8, !tbaa !8
  %15 = load ptr, ptr %8, align 8, !tbaa !11
  %16 = getelementptr inbounds [1 x %struct.option], ptr %11, i64 0, i64 0
  %17 = call i32 @parse_options(i32 noundef %13, ptr noundef %14, ptr noundef %15, ptr noundef %16, ptr noundef @git_stash_list_usage, i32 noundef 8)
  store i32 %17, ptr %6, align 4, !tbaa !4
  %18 = load ptr, ptr @the_repository, align 8, !tbaa !13
  %19 = call ptr @get_main_ref_store(ptr noundef %18)
  %20 = call i32 @refs_ref_exists(ptr noundef %19, ptr noundef @ref_stash)
  %21 = icmp ne i32 %20, 0
  br i1 %21, label %23, label %22

22:                                               ; preds = %4
  store i32 0, ptr %5, align 4
  store i32 1, ptr %12, align 4
  br label %36

23:                                               ; preds = %4
  %24 = getelementptr inbounds nuw %struct.child_process, ptr %10, i32 0, i32 11
  %25 = load i16, ptr %24, align 8
  %26 = and i16 %25, -9
  %27 = or i16 %26, 8
  store i16 %27, ptr %24, align 8
  %28 = getelementptr inbounds nuw %struct.child_process, ptr %10, i32 0, i32 0
  call void (ptr, ...) @strvec_pushl(ptr noundef %28, ptr noundef @.str.73, ptr noundef @.str.74, ptr noundef @.str.75, ptr noundef @.str.76, ptr noundef null)
  %29 = getelementptr inbounds nuw %struct.child_process, ptr %10, i32 0, i32 0
  %30 = load ptr, ptr %7, align 8, !tbaa !8
  call void @strvec_pushv(ptr noundef %29, ptr noundef %30)
  %31 = getelementptr inbounds nuw %struct.child_process, ptr %10, i32 0, i32 0
  %32 = call ptr @strvec_push(ptr noundef %31, ptr noundef @ref_stash)
  %33 = getelementptr inbounds nuw %struct.child_process, ptr %10, i32 0, i32 0
  %34 = call ptr @strvec_push(ptr noundef %33, ptr noundef @.str.77)
  %35 = call i32 @run_command(ptr noundef %10)
  store i32 %35, ptr %5, align 4
  store i32 1, ptr %12, align 4
  br label %36

36:                                               ; preds = %23, %22
  call void @llvm.lifetime.end.p0(i64 88, ptr %11) #9
  call void @llvm.lifetime.end.p0(i64 120, ptr %10) #9
  %37 = load i32, ptr %5, align 4
  ret i32 %37
}