; Function Attrs: nounwind uwtable
define internal i32 @list_stash(i32 noundef %0, ptr noundef %1, ptr noundef %2, ptr readnone captures(none) %3) #0 {
  %5 = alloca %struct.child_process, align 8
  %6 = alloca [1 x %struct.option], align 16
  call void @llvm.lifetime.start.p0(i64 120, ptr nonnull %5) #15
  call void @llvm.memcpy.p0.p0.i64(ptr noundef nonnull align 8 dereferenceable(120) %5, ptr noundef nonnull align 8 dereferenceable(120) @__const.do_push_stash.cp.159, i64 120, i1 false)
  call void @llvm.lifetime.start.p0(i64 88, ptr nonnull %6) #15
  call void @llvm.memset.p0.i64(ptr noundef nonnull align 16 dereferenceable(88) %6, i8 0, i64 88, i1 false)
  %7 = call i32 @parse_options(i32 noundef %0, ptr noundef %1, ptr noundef %2, ptr noundef nonnull %6, ptr noundef nonnull @git_stash_list_usage, i32 noundef 8) #15
  %8 = load ptr, ptr @the_repository, align 8, !tbaa !18
  %9 = call ptr @get_main_ref_store(ptr noundef %8) #15
  %10 = call i32 @refs_ref_exists(ptr noundef %9, ptr noundef nonnull @ref_stash) #15
  %.not = icmp eq i32 %10, 0
  br i1 %.not, label %16, label %11

11:                                               ; preds = %4
  %12 = getelementptr inbounds nuw i8, ptr %5, i64 104
  store i16 8, ptr %12, align 8
  call void (ptr, ...) @strvec_pushl(ptr noundef nonnull %5, ptr noundef nonnull @.str.73, ptr noundef nonnull @.str.74, ptr noundef nonnull @.str.75, ptr noundef nonnull @.str.76, ptr noundef null) #15
  call void @strvec_pushv(ptr noundef nonnull %5, ptr noundef %1) #15
  %13 = call ptr @strvec_push(ptr noundef nonnull %5, ptr noundef nonnull @ref_stash) #15
  %14 = call ptr @strvec_push(ptr noundef nonnull %5, ptr noundef nonnull @.str.77) #15
  %15 = call i32 @run_command(ptr noundef nonnull %5) #15
  br label %16

16:                                               ; preds = %4, %11
  %.0 = phi i32 [ %15, %11 ], [ 0, %4 ]
  call void @llvm.lifetime.end.p0(i64 88, ptr nonnull %6) #15
  call void @llvm.lifetime.end.p0(i64 120, ptr nonnull %5) #15
  ret i32 %.0
}